; Function Attrs: nounwind uwtable
define internal fastcc void @mpeg_set_cc_format(ptr noundef %0, i32 noundef range(i32 1, 5) %1, ptr noundef %2) unnamed_addr #1 {
  %4 = getelementptr inbounds nuw i8, ptr %0, i64 32
  %5 = load ptr, ptr %4, align 8, !tbaa !4
  %6 = getelementptr inbounds nuw i8, ptr %5, i64 4848
  %7 = load i32, ptr %6, align 8, !tbaa !176
  %.not = icmp eq i32 %7, 0
  br i1 %.not, label %8, label %9

8:                                                ; preds = %3
  store i32 %1, ptr %6, align 8, !tbaa !176
  tail call void (ptr, i32, ptr, ...) @av_log(ptr noundef nonnull %0, i32 noundef 48, ptr noundef nonnull @.str.59, ptr noundef %2) #12
  br label %9

9:                                                ; preds = %8, %3
  %10 = getelementptr inbounds nuw i8, ptr %0, i64 696
  %11 = load i32, ptr %10, align 8, !tbaa !184
  %12 = or i32 %11, 2
  store i32 %12, ptr %10, align 8, !tbaa !184
  ret void
}